target datalayout = "e-m:e-p270:32:32-p271:32:32-p272:64:64-i64:64-i128:128-f80:128-n8:16:32:64-S128"
target triple = "x86_64-pc-linux-gnu"

%struct._typeobject = type { %struct.PyVarObject, ptr, i64, i64, ptr, i64, ptr, ptr, ptr, ptr, ptr, ptr, ptr, ptr, ptr, ptr, ptr, ptr, ptr, i64, ptr, ptr, ptr, ptr, i64, ptr, ptr, ptr, ptr, ptr, ptr, ptr, ptr, ptr, i64, ptr, ptr, ptr, ptr, ptr, ptr, ptr, ptr, ptr, ptr, ptr, i32, ptr, ptr, i8, i16 }
%struct.PyVarObject = type { %struct._object, i64 }
%struct._object = type { %union.anon, ptr }
%union.anon = type { i64 }
%struct.PyTupleObject = type { %struct.PyVarObject, [1 x ptr] }

@_Py_NoneStruct = external global %struct._object, align 8
@PyExc_TypeError = external global ptr, align 8
@.str.52 = private unnamed_addr constant [28 x i8] c"requires tuple of arguments\00", align 1
@.str.53 = private unnamed_addr constant [48 x i8] c"all arguments to joinpath() must be str or None\00", align 1
@PyExc_SystemError = external global ptr, align 8
@.str.54 = private unnamed_addr constant [21 x i8] c"failed to join paths\00", align 1

; Function Attrs: inlinehint nounwind uwtable
define internal i64 @Py_SIZE(ptr noundef %0) #4 {
  %2 = alloca ptr, align 8
  store ptr %0, ptr %2, align 8, !tbaa !16
  %3 = load ptr, ptr %2, align 8, !tbaa !16
  %4 = getelementptr inbounds nuw %struct.PyVarObject, ptr %3, i32 0, i32 1
  %5 = load i64, ptr %4, align 8, !tbaa !63
  ret i64 %5
}

; Function Attrs: inlinehint nounwind uwtable
define internal i64 @PyTuple_GET_SIZE(ptr noundef %0) #4 {
  %2 = alloca ptr, align 8
  %3 = alloca ptr, align 8
  store ptr %0, ptr %2, align 8, !tbaa !16
  call void @llvm.lifetime.start.p0(i64 8, ptr %3) #10
  %4 = load ptr, ptr %2, align 8, !tbaa !16
  store ptr %4, ptr %3, align 8, !tbaa !62
  %5 = load ptr, ptr %3, align 8, !tbaa !62
  %6 = call i64 @Py_SIZE(ptr noundef %5)
  call void @llvm.lifetime.end.p0(i64 8, ptr %3) #10
  ret i64 %6
}

; Function Attrs: inlinehint nounwind uwtable
define internal i32 @PyType_HasFeature(ptr noundef %0, i64 noundef %1) #4 {
  %3 = alloca ptr, align 8
  %4 = alloca i64, align 8
  %5 = alloca i64, align 8
  store ptr %0, ptr %3, align 8, !tbaa !27
  store i64 %1, ptr %4, align 8, !tbaa !30
  call void @llvm.lifetime.start.p0(i64 8, ptr %5) #10
  %6 = load ptr, ptr %3, align 8, !tbaa !27
  %7 = getelementptr inbounds nuw %struct._typeobject, ptr %6, i32 0, i32 19
  %8 = load i64, ptr %7, align 8, !tbaa !57
  store i64 %8, ptr %5, align 8, !tbaa !30
  %9 = load i64, ptr %5, align 8, !tbaa !30
  %10 = load i64, ptr %4, align 8, !tbaa !30
  %11 = and i64 %9, %10
  %12 = icmp ne i64 %11, 0
  %13 = zext i1 %12 to i32
  call void @llvm.lifetime.end.p0(i64 8, ptr %5) #10
  ret i32 %13
}

; Function Attrs: inlinehint nounwind uwtable
define internal ptr @_Py_TYPE(ptr noundef %0) #4 {
  %2 = alloca ptr, align 8
  store ptr %0, ptr %2, align 8, !tbaa !16
  %3 = load ptr, ptr %2, align 8, !tbaa !16
  %4 = getelementptr inbounds nuw %struct._object, ptr %3, i32 0, i32 1
  %5 = load ptr, ptr %4, align 8, !tbaa !37
  ret ptr %5
}

; Function Attrs: nounwind uwtable
define internal ptr @getpath_joinpath(ptr noundef %0, ptr noundef %1) #0 {
  %3 = alloca ptr, align 8
  %4 = alloca ptr, align 8
  %5 = alloca ptr, align 8
  %6 = alloca i64, align 8
  %7 = alloca i32, align 4
  %8 = alloca ptr, align 8
  %9 = alloca i64, align 8
  %10 = alloca i64, align 8
  %11 = alloca i64, align 8
  %12 = alloca ptr, align 8
  %13 = alloca i64, align 8
  %14 = alloca ptr, align 8
  %15 = alloca i64, align 8
  %16 = alloca i64, align 8
  %17 = alloca ptr, align 8
  store ptr %0, ptr %4, align 8, !tbaa !16
  store ptr %1, ptr %5, align 8, !tbaa !16
  %18 = load ptr, ptr %5, align 8, !tbaa !16
  %19 = call ptr @_Py_TYPE(ptr noundef %18)
  %20 = call i32 @PyType_HasFeature(ptr noundef %19, i64 noundef 67108864)
  %21 = icmp ne i32 %20, 0
  br i1 %21, label %24, label %22

22:                                               ; preds = %2
  %23 = load ptr, ptr @PyExc_TypeError, align 8, !tbaa !16
  call void @PyErr_SetString(ptr noundef %23, ptr noundef @.str.52)
  store ptr null, ptr %3, align 8
  br label %203

24:                                               ; preds = %2
  call void @llvm.lifetime.start.p0(i64 8, ptr %6) #10
  %25 = load ptr, ptr %5, align 8, !tbaa !16
  %26 = call i64 @PyTuple_GET_SIZE(ptr noundef %25)
  store i64 %26, ptr %6, align 8, !tbaa !30
  %27 = load i64, ptr %6, align 8, !tbaa !30
  %28 = icmp eq i64 %27, 0
  br i1 %28, label %29, label %31

29:                                               ; preds = %24
  %30 = call ptr @Py_GetConstant(i32 noundef 7)
  store ptr %30, ptr %3, align 8
  store i32 1, ptr %7, align 4
  br label %202

31:                                               ; preds = %24
  call void @llvm.lifetime.start.p0(i64 8, ptr %8) #10
  %32 = load i64, ptr %6, align 8, !tbaa !30
  %33 = mul i64 %32, 8
  %34 = call ptr @PyMem_Malloc(i64 noundef %33)
  store ptr %34, ptr %8, align 8, !tbaa !42
  %35 = load ptr, ptr %8, align 8, !tbaa !42
  %36 = icmp eq ptr %35, null
  br i1 %36, label %37, label %39

37:                                               ; preds = %31
  %38 = call ptr @PyErr_NoMemory()
  store ptr null, ptr %3, align 8
  store i32 1, ptr %7, align 4
  br label %201

39:                                               ; preds = %31
  %40 = load ptr, ptr %8, align 8, !tbaa !42
  %41 = load i64, ptr %6, align 8, !tbaa !30
  %42 = mul i64 %41, 8
  call void @llvm.memset.p0.i64(ptr align 8 %40, i8 0, i64 %42, i1 false)
  call void @llvm.lifetime.start.p0(i64 8, ptr %9) #10
  store i64 0, ptr %9, align 8, !tbaa !30
  call void @llvm.lifetime.start.p0(i64 8, ptr %10) #10
  store i64 0, ptr %10, align 8, !tbaa !30
  call void @llvm.lifetime.start.p0(i64 8, ptr %11) #10
  store i64 0, ptr %11, align 8, !tbaa !30
  br label %43

43:                                               ; preds = %95, %39
  %44 = load i64, ptr %11, align 8, !tbaa !30
  %45 = load i64, ptr %6, align 8, !tbaa !30
  %46 = icmp slt i64 %44, %45
  br i1 %46, label %48, label %47

47:                                               ; preds = %43
  store i32 2, ptr %7, align 4
  br label %98

48:                                               ; preds = %43
  call void @llvm.lifetime.start.p0(i64 8, ptr %12) #10
  %49 = load ptr, ptr %5, align 8, !tbaa !16
  %50 = getelementptr inbounds nuw %struct.PyTupleObject, ptr %49, i32 0, i32 1
  %51 = load i64, ptr %11, align 8, !tbaa !30
  %52 = getelementptr [1 x ptr], ptr %50, i64 0, i64 %51
  %53 = load ptr, ptr %52, align 8, !tbaa !16
  store ptr %53, ptr %12, align 8, !tbaa !16
  call void @llvm.lifetime.start.p0(i64 8, ptr %13) #10
  %54 = load ptr, ptr %12, align 8, !tbaa !16
  %55 = icmp eq ptr %54, @_Py_NoneStruct
  br i1 %55, label %56, label %57

56:                                               ; preds = %48
  store i64 0, ptr %13, align 8, !tbaa !30
  br label %87

57:                                               ; preds = %48
  %58 = load ptr, ptr %12, align 8, !tbaa !16
  %59 = call ptr @_Py_TYPE(ptr noundef %58)
  %60 = call i32 @PyType_HasFeature(ptr noundef %59, i64 noundef 268435456)
  %61 = icmp ne i32 %60, 0
  br i1 %61, label %62, label %84

62:                                               ; preds = %57
  %63 = load ptr, ptr %12, align 8, !tbaa !16
  %64 = call ptr @PyUnicode_AsWideCharString(ptr noundef %63, ptr noundef %13)
  %65 = load ptr, ptr %8, align 8, !tbaa !42
  %66 = load i64, ptr %11, align 8, !tbaa !30
  %67 = getelementptr ptr, ptr %65, i64 %66
  store ptr %64, ptr %67, align 8, !tbaa !29
  %68 = load ptr, ptr %8, align 8, !tbaa !42
  %69 = load i64, ptr %11, align 8, !tbaa !30
  %70 = getelementptr ptr, ptr %68, i64 %69
  %71 = load ptr, ptr %70, align 8, !tbaa !29
  %72 = icmp ne ptr %71, null
  br i1 %72, label %74, label %73

73:                                               ; preds = %62
  store i64 -1, ptr %9, align 8, !tbaa !30
  store i32 2, ptr %7, align 4
  br label %92

74:                                               ; preds = %62
  %75 = load ptr, ptr %8, align 8, !tbaa !42
  %76 = load i64, ptr %11, align 8, !tbaa !30
  %77 = getelementptr ptr, ptr %75, i64 %76
  %78 = load ptr, ptr %77, align 8, !tbaa !29
  %79 = call i32 @_Py_isabs(ptr noundef %78)
  %80 = icmp ne i32 %79, 0
  br i1 %80, label %81, label %83

81:                                               ; preds = %74
  %82 = load i64, ptr %11, align 8, !tbaa !30
  store i64 %82, ptr %10, align 8, !tbaa !30
  br label %83

83:                                               ; preds = %81, %74
  br label %86

84:                                               ; preds = %57
  %85 = load ptr, ptr @PyExc_TypeError, align 8, !tbaa !16
  call void @PyErr_SetString(ptr noundef %85, ptr noundef @.str.53)
  store i64 -1, ptr %9, align 8, !tbaa !30
  store i32 2, ptr %7, align 4
  br label %92

86:                                               ; preds = %83
  br label %87

87:                                               ; preds = %86, %56
  %88 = load i64, ptr %13, align 8, !tbaa !30
  %89 = add i64 %88, 1
  %90 = load i64, ptr %9, align 8, !tbaa !30
  %91 = add i64 %90, %89
  store i64 %91, ptr %9, align 8, !tbaa !30
  store i32 0, ptr %7, align 4
  br label %92

92:                                               ; preds = %87, %84, %73
  call void @llvm.lifetime.end.p0(i64 8, ptr %13) #10
  call void @llvm.lifetime.end.p0(i64 8, ptr %12) #10
  %93 = load i32, ptr %7, align 4
  switch i32 %93, label %98 [
    i32 0, label %94
  ]

94:                                               ; preds = %92
  br label %95

95:                                               ; preds = %94
  %96 = load i64, ptr %11, align 8, !tbaa !30
  %97 = add i64 %96, 1
  store i64 %97, ptr %11, align 8, !tbaa !30
  br label %43, !llvm.loop !43

98:                                               ; preds = %92, %47
  call void @llvm.lifetime.end.p0(i64 8, ptr %11) #10
  br label %99

99:                                               ; preds = %98
  call void @llvm.lifetime.start.p0(i64 8, ptr %14) #10
  %100 = load i64, ptr %9, align 8, !tbaa !30
  %101 = icmp sgt i64 %100, 0
  br i1 %101, label %102, label %106

102:                                              ; preds = %99
  %103 = load i64, ptr %9, align 8, !tbaa !30
  %104 = mul i64 %103, 4
  %105 = call ptr @PyMem_Malloc(i64 noundef %104)
  br label %107

106:                                              ; preds = %99
  br label %107

107:                                              ; preds = %106, %102
  %108 = phi ptr [ %105, %102 ], [ null, %106 ]
  store ptr %108, ptr %14, align 8, !tbaa !29
  %109 = load ptr, ptr %14, align 8, !tbaa !29
  %110 = icmp ne ptr %109, null
  br i1 %110, label %133, label %111

111:                                              ; preds = %107
  call void @llvm.lifetime.start.p0(i64 8, ptr %15) #10
  store i64 0, ptr %15, align 8, !tbaa !30
  br label %112

112:                                              ; preds = %122, %111
  %113 = load i64, ptr %15, align 8, !tbaa !30
  %114 = load i64, ptr %6, align 8, !tbaa !30
  %115 = icmp slt i64 %113, %114
  br i1 %115, label %117, label %116

116:                                              ; preds = %112
  store i32 5, ptr %7, align 4
  call void @llvm.lifetime.end.p0(i64 8, ptr %15) #10
  br label %125

117:                                              ; preds = %112
  %118 = load ptr, ptr %8, align 8, !tbaa !42
  %119 = load i64, ptr %15, align 8, !tbaa !30
  %120 = getelementptr ptr, ptr %118, i64 %119
  %121 = load ptr, ptr %120, align 8, !tbaa !29
  call void @PyMem_Free(ptr noundef %121)
  br label %122

122:                                              ; preds = %117
  %123 = load i64, ptr %15, align 8, !tbaa !30
  %124 = add i64 %123, 1
  store i64 %124, ptr %15, align 8, !tbaa !30
  br label %112, !llvm.loop !44

125:                                              ; preds = %116
  %126 = load ptr, ptr %8, align 8, !tbaa !42
  call void @PyMem_Free(ptr noundef %126)
  %127 = load i64, ptr %9, align 8, !tbaa !30
  %128 = icmp ne i64 %127, 0
  br i1 %128, label %129, label %131

129:                                              ; preds = %125
  %130 = call ptr @PyErr_NoMemory()
  store ptr null, ptr %3, align 8
  store i32 1, ptr %7, align 4
  br label %200

131:                                              ; preds = %125
  %132 = call ptr @Py_GetConstant(i32 noundef 7)
  store ptr %132, ptr %3, align 8
  store i32 1, ptr %7, align 4
  br label %200

133:                                              ; preds = %107
  %134 = load ptr, ptr %14, align 8, !tbaa !29
  %135 = getelementptr i32, ptr %134, i64 0
  store i32 0, ptr %135, align 4, !tbaa !9
  call void @llvm.lifetime.start.p0(i64 8, ptr %16) #10
  store i64 0, ptr %16, align 8, !tbaa !30
  br label %136

136:                                              ; preds = %185, %133
  %137 = load i64, ptr %16, align 8, !tbaa !30
  %138 = load i64, ptr %6, align 8, !tbaa !30
  %139 = icmp slt i64 %137, %138
  br i1 %139, label %141, label %140

140:                                              ; preds = %136
  store i32 8, ptr %7, align 4
  call void @llvm.lifetime.end.p0(i64 8, ptr %16) #10
  br label %188

141:                                              ; preds = %136
  %142 = load ptr, ptr %8, align 8, !tbaa !42
  %143 = load i64, ptr %16, align 8, !tbaa !30
  %144 = getelementptr ptr, ptr %142, i64 %143
  %145 = load ptr, ptr %144, align 8, !tbaa !29
  %146 = icmp ne ptr %145, null
  br i1 %146, label %148, label %147

147:                                              ; preds = %141
  br label %185

148:                                              ; preds = %141
  %149 = load i64, ptr %16, align 8, !tbaa !30
  %150 = load i64, ptr %10, align 8, !tbaa !30
  %151 = icmp sge i64 %149, %150
  br i1 %151, label %152, label %180

152:                                              ; preds = %148
  %153 = load ptr, ptr %14, align 8, !tbaa !29
  %154 = icmp ne ptr %153, null
  br i1 %154, label %155, label %180

155:                                              ; preds = %152
  %156 = load ptr, ptr %14, align 8, !tbaa !29
  %157 = getelementptr i32, ptr %156, i64 0
  %158 = load i32, ptr %157, align 4, !tbaa !9
  %159 = icmp ne i32 %158, 0
  br i1 %159, label %167, label %160

160:                                              ; preds = %155
  %161 = load ptr, ptr %14, align 8, !tbaa !29
  %162 = load ptr, ptr %8, align 8, !tbaa !42
  %163 = load i64, ptr %16, align 8, !tbaa !30
  %164 = getelementptr ptr, ptr %162, i64 %163
  %165 = load ptr, ptr %164, align 8, !tbaa !29
  %166 = call ptr @wcscpy(ptr noundef %161, ptr noundef %165) #10
  br label %179

167:                                              ; preds = %155
  %168 = load ptr, ptr %14, align 8, !tbaa !29
  %169 = load ptr, ptr %8, align 8, !tbaa !42
  %170 = load i64, ptr %16, align 8, !tbaa !30
  %171 = getelementptr ptr, ptr %169, i64 %170
  %172 = load ptr, ptr %171, align 8, !tbaa !29
  %173 = load i64, ptr %9, align 8, !tbaa !30
  %174 = call i32 @_Py_add_relfile(ptr noundef %168, ptr noundef %172, i64 noundef %173)
  %175 = icmp slt i32 %174, 0
  br i1 %175, label %176, label %178

176:                                              ; preds = %167
  %177 = load ptr, ptr %14, align 8, !tbaa !29
  call void @PyMem_Free(ptr noundef %177)
  store ptr null, ptr %14, align 8, !tbaa !29
  br label %178

178:                                              ; preds = %176, %167
  br label %179

179:                                              ; preds = %178, %160
  br label %180

180:                                              ; preds = %179, %152, %148
  %181 = load ptr, ptr %8, align 8, !tbaa !42
  %182 = load i64, ptr %16, align 8, !tbaa !30
  %183 = getelementptr ptr, ptr %181, i64 %182
  %184 = load ptr, ptr %183, align 8, !tbaa !29
  call void @PyMem_Free(ptr noundef %184)
  br label %185

185:                                              ; preds = %180, %147
  %186 = load i64, ptr %16, align 8, !tbaa !30
  %187 = add i64 %186, 1
  store i64 %187, ptr %16, align 8, !tbaa !30
  br label %136, !llvm.loop !45

188:                                              ; preds = %140
  %189 = load ptr, ptr %8, align 8, !tbaa !42
  call void @PyMem_Free(ptr noundef %189)
  %190 = load ptr, ptr %14, align 8, !tbaa !29
  %191 = icmp ne ptr %190, null
  br i1 %191, label %194, label %192

192:                                              ; preds = %188
  %193 = load ptr, ptr @PyExc_SystemError, align 8, !tbaa !16
  call void @PyErr_SetString(ptr noundef %193, ptr noundef @.str.54)
  store ptr null, ptr %3, align 8
  store i32 1, ptr %7, align 4
  br label %200

194:                                              ; preds = %188
  call void @llvm.lifetime.start.p0(i64 8, ptr %17) #10
  %195 = load ptr, ptr %14, align 8, !tbaa !29
  %196 = call ptr @_Py_normpath(ptr noundef %195, i64 noundef -1)
  %197 = call ptr @PyUnicode_FromWideChar(ptr noundef %196, i64 noundef -1)
  store ptr %197, ptr %17, align 8, !tbaa !16
  %198 = load ptr, ptr %14, align 8, !tbaa !29
  call void @PyMem_Free(ptr noundef %198)
  %199 = load ptr, ptr %17, align 8, !tbaa !16
  store ptr %199, ptr %3, align 8
  store i32 1, ptr %7, align 4
  call void @llvm.lifetime.end.p0(i64 8, ptr %17) #10
  br label %200

200:                                              ; preds = %194, %192, %131, %129
  call void @llvm.lifetime.end.p0(i64 8, ptr %14) #10
  call void @llvm.lifetime.end.p0(i64 8, ptr %10) #10
  call void @llvm.lifetime.end.p0(i64 8, ptr %9) #10
  br label %201

201:                                              ; preds = %200, %37
  call void @llvm.lifetime.end.p0(i64 8, ptr %8) #10
  br label %202

202:                                              ; preds = %201, %29
  call void @llvm.lifetime.end.p0(i64 8, ptr %6) #10
  br label %203

203:                                              ; preds = %202, %22
  %204 = load ptr, ptr %3, align 8
  ret ptr %204
}