; Function Attrs: nounwind uwtable
define internal ptr @getpath_joinpath(ptr readnone captures(none) %0, ptr noundef readonly captures(none) %1) #0 {
  %3 = alloca i64, align 8
  %4 = getelementptr i8, ptr %1, i64 8
  %.val88 = load ptr, ptr %4, align 8, !tbaa !17
  %5 = getelementptr i8, ptr %.val88, i64 168
  %.val89 = load i64, ptr %5, align 8, !tbaa !41
  %6 = and i64 %.val89, 67108864
  %.not = icmp eq i64 %6, 0
  br i1 %.not, label %7, label %9

7:                                                ; preds = %2
  %8 = load ptr, ptr @PyExc_TypeError, align 8, !tbaa !31
  tail call void @PyErr_SetString(ptr noundef %8, ptr noundef nonnull @.str.52) #13
  br label %77

9:                                                ; preds = %2
  %10 = getelementptr i8, ptr %1, i64 16
  %.val91 = load i64, ptr %10, align 8, !tbaa !47
  %11 = icmp eq i64 %.val91, 0
  br i1 %11, label %12, label %14

12:                                               ; preds = %9
  %13 = tail call ptr @Py_GetConstant(i32 noundef 7) #13
  br label %77

14:                                               ; preds = %9
  %15 = shl i64 %.val91, 3
  %16 = tail call ptr @PyMem_Malloc(i64 noundef %15) #13
  %17 = icmp eq ptr %16, null
  br i1 %17, label %18, label %20

18:                                               ; preds = %14
  %19 = tail call ptr @PyErr_NoMemory() #13
  br label %77

20:                                               ; preds = %14
  tail call void @llvm.memset.p0.i64(ptr nonnull align 8 %16, i8 0, i64 %15, i1 false)
  %21 = icmp sgt i64 %.val91, 0
  br i1 %21, label %.lr.ph, label %._crit_edge116.thread

._crit_edge116.thread:                            ; preds = %20
  tail call void @PyMem_Free(ptr noundef nonnull %16) #13
  br label %52

.lr.ph:                                           ; preds = %20
  %22 = getelementptr inbounds nuw i8, ptr %1, i64 24
  br label %23

23:                                               ; preds = %.lr.ph, %38
  %.066106 = phi i64 [ 0, %.lr.ph ], [ %42, %38 ]
  %.067105 = phi i64 [ 0, %.lr.ph ], [ %.269, %38 ]
  %.071104 = phi i64 [ 0, %.lr.ph ], [ %41, %38 ]
  %24 = getelementptr [1 x ptr], ptr %22, i64 0, i64 %.066106
  %25 = load ptr, ptr %24, align 8, !tbaa !31
  call void @llvm.lifetime.start.p0(i64 8, ptr nonnull %3) #13
  %26 = icmp eq ptr %25, @_Py_NoneStruct
  br i1 %26, label %38, label %27

27:                                               ; preds = %23
  %28 = getelementptr i8, ptr %25, i64 8
  %.val = load ptr, ptr %28, align 8, !tbaa !17
  %29 = getelementptr i8, ptr %.val, i64 168
  %.val90 = load i64, ptr %29, align 8, !tbaa !41
  %30 = and i64 %.val90, 268435456
  %.not80 = icmp eq i64 %30, 0
  br i1 %.not80, label %36, label %31

31:                                               ; preds = %27
  %32 = call ptr @PyUnicode_AsWideCharString(ptr noundef %25, ptr noundef nonnull %3) #13
  %33 = getelementptr ptr, ptr %16, i64 %.066106
  store ptr %32, ptr %33, align 8, !tbaa !33
  %.not81 = icmp eq ptr %32, null
  br i1 %.not81, label %.thread95, label %34

34:                                               ; preds = %31
  %35 = call i32 @_Py_isabs(ptr noundef nonnull %32) #13
  %.not82 = icmp eq i32 %35, 0
  %spec.select = select i1 %.not82, i64 %.067105, i64 %.066106
  %.pre = load i64, ptr %3, align 8, !tbaa !26
  br label %38

36:                                               ; preds = %27
  %37 = load ptr, ptr @PyExc_TypeError, align 8, !tbaa !31
  call void @PyErr_SetString(ptr noundef %37, ptr noundef nonnull @.str.53) #13
  br label %.thread95

.thread95:                                        ; preds = %31, %36
  call void @llvm.lifetime.end.p0(i64 8, ptr nonnull %3) #13
  br label %.preheader

38:                                               ; preds = %23, %34
  %39 = phi i64 [ %.pre, %34 ], [ 0, %23 ]
  %.269 = phi i64 [ %spec.select, %34 ], [ %.067105, %23 ]
  %40 = add i64 %.071104, 1
  %41 = add i64 %40, %39
  call void @llvm.lifetime.end.p0(i64 8, ptr nonnull %3) #13
  %42 = add nuw nsw i64 %.066106, 1
  %exitcond.not = icmp eq i64 %42, %.val91
  br i1 %exitcond.not, label %._crit_edge, label %23, !llvm.loop !48

._crit_edge:                                      ; preds = %38
  %43 = icmp sgt i64 %41, 0
  br i1 %43, label %44, label %.preheader

44:                                               ; preds = %._crit_edge
  %45 = shl i64 %41, 2
  %46 = call ptr @PyMem_Malloc(i64 noundef %45) #13
  %.not83 = icmp eq ptr %46, null
  br i1 %.not83, label %.preheader, label %54

.preheader:                                       ; preds = %.thread95, %._crit_edge, %44
  %.17297127 = phi i64 [ -1, %44 ], [ -1, %.thread95 ], [ %41, %._crit_edge ]
  br label %.lr.ph115

._crit_edge116:                                   ; preds = %.lr.ph115
  call void @PyMem_Free(ptr noundef nonnull %16) #13
  %.not84 = icmp eq i64 %.17297127, 0
  br i1 %.not84, label %52, label %50

.lr.ph115:                                        ; preds = %.preheader, %.lr.ph115
  %.061114 = phi i64 [ %49, %.lr.ph115 ], [ 0, %.preheader ]
  %47 = getelementptr ptr, ptr %16, i64 %.061114
  %48 = load ptr, ptr %47, align 8, !tbaa !33
  call void @PyMem_Free(ptr noundef %48) #13
  %49 = add nuw nsw i64 %.061114, 1
  %exitcond121.not = icmp eq i64 %49, %.val91
  br i1 %exitcond121.not, label %._crit_edge116, label %.lr.ph115, !llvm.loop !49

50:                                               ; preds = %._crit_edge116
  %51 = call ptr @PyErr_NoMemory() #13
  br label %77

52:                                               ; preds = %._crit_edge116.thread, %._crit_edge116
  %53 = call ptr @Py_GetConstant(i32 noundef 7) #13
  br label %77

54:                                               ; preds = %44
  store i32 0, ptr %46, align 4, !tbaa !12
  br label %.lr.ph111

._crit_edge112:                                   ; preds = %70
  call void @PyMem_Free(ptr noundef nonnull %16) #13
  %.not85 = icmp eq ptr %.163, null
  br i1 %.not85, label %72, label %74

.lr.ph111:                                        ; preds = %54, %70
  %.060109 = phi i64 [ %71, %70 ], [ 0, %54 ]
  %.062108 = phi ptr [ %.163, %70 ], [ %46, %54 ]
  %55 = getelementptr ptr, ptr %16, i64 %.060109
  %56 = load ptr, ptr %55, align 8, !tbaa !33
  %.not86 = icmp eq ptr %56, null
  br i1 %.not86, label %70, label %57

57:                                               ; preds = %.lr.ph111
  %58 = icmp sge i64 %.060109, %.269
  %59 = icmp ne ptr %.062108, null
  %or.cond = select i1 %58, i1 %59, i1 false
  br i1 %or.cond, label %60, label %68

60:                                               ; preds = %57
  %61 = load i32, ptr %.062108, align 4, !tbaa !12
  %.not87 = icmp eq i32 %61, 0
  br i1 %.not87, label %62, label %64

62:                                               ; preds = %60
  %63 = call ptr @wcscpy(ptr noundef nonnull %.062108, ptr noundef nonnull %56) #13
  br label %68

64:                                               ; preds = %60
  %65 = call i32 @_Py_add_relfile(ptr noundef nonnull %.062108, ptr noundef nonnull %56, i64 noundef %41) #13
  %66 = icmp slt i32 %65, 0
  br i1 %66, label %67, label %68

67:                                               ; preds = %64
  call void @PyMem_Free(ptr noundef nonnull %.062108) #13
  br label %68

68:                                               ; preds = %62, %67, %64, %57
  %.264 = phi ptr [ null, %67 ], [ %.062108, %64 ], [ %.062108, %62 ], [ %.062108, %57 ]
  %69 = load ptr, ptr %55, align 8, !tbaa !33
  call void @PyMem_Free(ptr noundef %69) #13
  br label %70

70:                                               ; preds = %.lr.ph111, %68
  %.163 = phi ptr [ %.264, %68 ], [ %.062108, %.lr.ph111 ]
  %71 = add nuw nsw i64 %.060109, 1
  %exitcond120.not = icmp eq i64 %71, %.val91
  br i1 %exitcond120.not, label %._crit_edge112, label %.lr.ph111, !llvm.loop !50

72:                                               ; preds = %._crit_edge112
  %73 = load ptr, ptr @PyExc_SystemError, align 8, !tbaa !31
  call void @PyErr_SetString(ptr noundef %73, ptr noundef nonnull @.str.54) #13
  br label %77

74:                                               ; preds = %._crit_edge112
  %75 = call ptr @_Py_normpath(ptr noundef nonnull %.163, i64 noundef -1) #13
  %76 = call ptr @PyUnicode_FromWideChar(ptr noundef %75, i64 noundef -1) #13
  call void @PyMem_Free(ptr noundef nonnull %.163) #13
  br label %77

77:                                               ; preds = %12, %50, %52, %72, %74, %18, %7
  %.0 = phi ptr [ null, %7 ], [ %13, %12 ], [ null, %18 ], [ %76, %74 ], [ null, %72 ], [ null, %50 ], [ %53, %52 ]
  ret ptr %.0
}